; Function Attrs: mustprogress uwtable
define noundef zeroext i1 @_ZNK6google8protobuf11MessageLite23SerializePartialToArrayEPvi(ptr noundef nonnull align 8 dereferenceable(16) %0, ptr noundef %1, i32 noundef %2) local_unnamed_addr #3 align 2 personality ptr @__gxx_personality_v0 {
  %4 = alloca %"class.google::protobuf::io::EpsCopyOutputStream", align 8
  %5 = alloca %"class.google::protobuf::internal::LogMessage", align 8
  %6 = alloca %"class.std::__cxx11::basic_string", align 8
  %7 = alloca %"class.google::protobuf::internal::LogFinisher", align 1
  %8 = load ptr, ptr %0, align 8
  %9 = getelementptr inbounds i8, ptr %8, i64 72
  %10 = load ptr, ptr %9, align 8
  %11 = tail call noundef i64 %10(ptr noundef nonnull align 8 dereferenceable(16) %0)
  %12 = icmp ugt i64 %11, 2147483647
  br i1 %12, label %13, label %30

13:                                               ; preds = %3
  call void @_ZN6google8protobuf8internal10LogMessageC1ENS0_8LogLevelEPKci(ptr noundef nonnull align 8 dereferenceable(56) %5, i32 noundef 2, ptr noundef nonnull @.str.2, i32 noundef 487)
  %14 = load ptr, ptr %0, align 8
  %15 = getelementptr inbounds i8, ptr %14, i64 16
  %16 = load ptr, ptr %15, align 8
  invoke void %16(ptr dead_on_unwind nonnull writable sret(%"class.std::__cxx11::basic_string") align 8 %6, ptr noundef nonnull align 8 dereferenceable(16) %0)
          to label %17 unwind label %25

17:                                               ; preds = %13
  %18 = invoke noundef nonnull align 8 dereferenceable(56) ptr @_ZN6google8protobuf8internal10LogMessagelsERKNSt7__cxx1112basic_stringIcSt11char_traitsIcESaIcEEE(ptr noundef nonnull align 8 dereferenceable(56) %5, ptr noundef nonnull align 8 dereferenceable(32) %6)
          to label %19 unwind label %27

19:                                               ; preds = %17
  %20 = invoke noundef nonnull align 8 dereferenceable(56) ptr @_ZN6google8protobuf8internal10LogMessagelsEPKc(ptr noundef nonnull align 8 dereferenceable(56) %18, ptr noundef nonnull @.str.7)
          to label %21 unwind label %27

21:                                               ; preds = %19
  %22 = invoke noundef nonnull align 8 dereferenceable(56) ptr @_ZN6google8protobuf8internal10LogMessagelsEm(ptr noundef nonnull align 8 dereferenceable(56) %20, i64 noundef %11)
          to label %23 unwind label %27

23:                                               ; preds = %21
  invoke void @_ZN6google8protobuf8internal11LogFinisheraSERNS1_10LogMessageE(ptr noundef nonnull align 1 dereferenceable(1) %7, ptr noundef nonnull align 8 dereferenceable(56) %22)
          to label %24 unwind label %27

24:                                               ; preds = %23
  call void @_ZNSt7__cxx1112basic_stringIcSt11char_traitsIcESaIcEED1Ev(ptr noundef nonnull align 8 dereferenceable(32) %6) #15
  call void @_ZN6google8protobuf8internal10LogMessageD1Ev(ptr noundef nonnull align 8 dereferenceable(56) %5) #15
  br label %46

25:                                               ; preds = %13
  %26 = landingpad { ptr, i32 }
          cleanup
  br label %29

27:                                               ; preds = %23, %21, %19, %17
  %28 = landingpad { ptr, i32 }
          cleanup
  call void @_ZNSt7__cxx1112basic_stringIcSt11char_traitsIcESaIcEED1Ev(ptr noundef nonnull align 8 dereferenceable(32) %6) #15
  br label %29

29:                                               ; preds = %27, %25
  %.pn = phi { ptr, i32 } [ %28, %27 ], [ %26, %25 ]
  call void @_ZN6google8protobuf8internal10LogMessageD1Ev(ptr noundef nonnull align 8 dereferenceable(56) %5) #15
  resume { ptr, i32 } %.pn

30:                                               ; preds = %3
  %31 = sext i32 %2 to i64
  %32 = icmp ugt i64 %11, %31
  br i1 %32, label %46, label %33

33:                                               ; preds = %30
  call void @llvm.lifetime.start.p0(i64 64, ptr nonnull %4)
  %34 = load atomic i8, ptr @_ZN6google8protobuf2io17CodedOutputStream36default_serialization_deterministic_E monotonic, align 1
  %35 = and i8 %34, 1
  %36 = getelementptr inbounds i8, ptr %1, i64 %11
  store ptr %36, ptr %4, align 8
  %37 = getelementptr inbounds i8, ptr %4, i64 8
  store ptr null, ptr %37, align 8
  %38 = getelementptr inbounds i8, ptr %4, i64 48
  store ptr null, ptr %38, align 8
  %39 = getelementptr inbounds i8, ptr %4, i64 56
  store i8 0, ptr %39, align 8
  %40 = getelementptr inbounds i8, ptr %4, i64 57
  store i8 0, ptr %40, align 1
  %41 = getelementptr inbounds i8, ptr %4, i64 58
  store i8 %35, ptr %41, align 2
  %42 = load ptr, ptr %0, align 8
  %43 = getelementptr inbounds i8, ptr %42, i64 96
  %44 = load ptr, ptr %43, align 8
  %45 = call noundef ptr %44(ptr noundef nonnull align 8 dereferenceable(16) %0, ptr noundef %1, ptr noundef nonnull %4)
  call void @llvm.lifetime.end.p0(i64 64, ptr nonnull %4)
  br label %46

46:                                               ; preds = %30, %33, %24
  %.0 = phi i1 [ false, %24 ], [ true, %33 ], [ false, %30 ]
  ret i1 %.0
}